target datalayout = "e-m:e-p270:32:32-p271:32:32-p272:64:64-i64:64-i128:128-f80:128-n8:16:32:64-S128"
target triple = "x86_64-pc-linux-gnu"

%class.NonJavaThread = type { %class.Thread, ptr }
%class.Thread = type { %class.ThreadShadow.base, i64, [43 x i64], ptr, ptr, i32, ptr, i64, i64, %class.ThreadLocalAllocBuffer, i64, %class.ThreadHeapSampler, %class.ThreadStatisticalInfo, %class.JfrThreadLocal, ptr, ptr, ptr, ptr, ptr, ptr, i64, i32, i32, ptr, i32, i32, i32, i32, i8, ptr }
%class.ThreadShadow.base = type <{ ptr, ptr, ptr, i32 }>
%class.ThreadLocalAllocBuffer = type <{ ptr, ptr, ptr, ptr, ptr, i64, i64, i64, i64, i32, i32, i32, i32, i64, %class.AdaptiveWeightedAverage, [4 x i8] }>
%class.AdaptiveWeightedAverage = type { float, i32, i32, i8, float }
%class.ThreadHeapSampler = type { i64 }
%class.ThreadStatisticalInfo = type { i64, i64 }
%class.JfrThreadLocal = type <{ ptr, ptr, ptr, ptr, ptr, ptr, ptr, ptr, ptr, ptr, %class.RefCountHandle, i64, i64, i64, i64, i64, i64, i64, i64, i64, i64, i64, i32, i32, i32, i16, i8, i8, i8, i8, i8, [5 x i8] }>
%class.RefCountHandle = type { ptr }

@_ZN13WatcherThread15_watcher_threadE = hidden global ptr null, align 8

; Function Attrs: mustprogress nounwind uwtable
define hidden void @_ZN13NonJavaThreadC2Ev(ptr noundef nonnull align 8 dereferenceable(896) %0) unnamed_addr #1 align 2 {
  %2 = alloca ptr, align 8
  store ptr %0, ptr %2, align 8
  %3 = load ptr, ptr %2, align 8
  call void @_ZN6ThreadC2E8MEMFLAGS(ptr noundef nonnull align 8 dereferenceable(888) %3, i8 noundef zeroext 2)
  store ptr getelementptr inbounds inrange(-16, 216) ({ [29 x ptr] }, ptr @_ZTV13NonJavaThread, i32 0, i32 0, i32 2), ptr %3, align 8
  %4 = getelementptr inbounds %class.NonJavaThread, ptr %3, i32 0, i32 1
  store volatile ptr null, ptr %4, align 8
  ret void
}

; Function Attrs: mustprogress nounwind uwtable
define hidden void @_ZN13WatcherThreadC2Ev(ptr noundef nonnull align 8 dereferenceable(896) %0) unnamed_addr #1 align 2 {
  %2 = alloca ptr, align 8
  store ptr %0, ptr %2, align 8
  %3 = load ptr, ptr %2, align 8
  call void @_ZN13NonJavaThreadC2Ev(ptr noundef nonnull align 8 dereferenceable(896) %3)
  store ptr getelementptr inbounds inrange(-16, 216) ({ [29 x ptr] }, ptr @_ZTV13WatcherThread, i32 0, i32 0, i32 2), ptr %3, align 8
  %4 = call noundef zeroext i1 @_ZN2os13create_threadEP6ThreadNS_10ThreadTypeEm(ptr noundef %3, i32 noundef 4, i64 noundef 0)
  br i1 %4, label %5, label %7

5:                                                ; preds = %1
  store ptr %3, ptr @_ZN13WatcherThread15_watcher_threadE, align 8
  %6 = call noundef i32 @_ZN2os12set_priorityEP6Thread14ThreadPriority(ptr noundef %3, i32 noundef 10)
  call void @_ZN2os12start_threadEP6Thread(ptr noundef %3)
  br label %7

7:                                                ; preds = %5, %1
  ret void
}