; Function Attrs: mustprogress nounwind uwtable
define hidden void @_ZN13WatcherThreadC2Ev(ptr noundef nonnull align 8 dereferenceable(896) %0) unnamed_addr #0 align 2 {
  tail call void @_ZN6ThreadC2E8MEMFLAGS(ptr noundef nonnull align 8 dereferenceable(888) %0, i8 noundef zeroext 2) #11
  %2 = getelementptr inbounds i8, ptr %0, i64 888
  store volatile ptr null, ptr %2, align 8
  store ptr getelementptr inbounds inrange(-16, 216) (i8, ptr @_ZTV13WatcherThread, i64 16), ptr %0, align 8
  %3 = tail call noundef zeroext i1 @_ZN2os13create_threadEP6ThreadNS_10ThreadTypeEm(ptr noundef nonnull %0, i32 noundef 4, i64 noundef 0) #11
  br i1 %3, label %4, label %6

4:                                                ; preds = %1
  store ptr %0, ptr @_ZN13WatcherThread15_watcher_threadE, align 8
  %5 = tail call noundef i32 @_ZN2os12set_priorityEP6Thread14ThreadPriority(ptr noundef nonnull %0, i32 noundef 10) #11
  tail call void @_ZN2os12start_threadEP6Thread(ptr noundef nonnull %0) #11
  br label %6

6:                                                ; preds = %4, %1
  ret void
}